target datalayout = "e-m:e-p270:32:32-p271:32:32-p272:64:64-i64:64-i128:128-f80:128-n8:16:32:64-S128"
target triple = "x86_64-pc-linux-gnu"

; Function Attrs: inlinehint nounwind uwtable
define internal i32 @Abc_LitNot(i32 noundef %0) #4 {
  %2 = alloca i32, align 4
  store i32 %0, ptr %2, align 4, !tbaa !10
  %3 = load i32, ptr %2, align 4, !tbaa !10
  %4 = xor i32 %3, 1
  ret i32 %4
}

; Function Attrs: inlinehint nounwind uwtable
define internal i32 @Gia_ManAppendOr(ptr noundef %0, i32 noundef %1, i32 noundef %2) #4 {
  %4 = alloca ptr, align 8
  %5 = alloca i32, align 4
  %6 = alloca i32, align 4
  store ptr %0, ptr %4, align 8, !tbaa !12
  store i32 %1, ptr %5, align 4, !tbaa !10
  store i32 %2, ptr %6, align 4, !tbaa !10
  %7 = load ptr, ptr %4, align 8, !tbaa !12
  %8 = load i32, ptr %5, align 4, !tbaa !10
  %9 = call i32 @Abc_LitNot(i32 noundef %8)
  %10 = load i32, ptr %6, align 4, !tbaa !10
  %11 = call i32 @Abc_LitNot(i32 noundef %10)
  %12 = call i32 @Gia_ManAppendAnd(ptr noundef %7, i32 noundef %9, i32 noundef %11)
  %13 = call i32 @Abc_LitNot(i32 noundef %12)
  ret i32 %13
}

; Function Attrs: inlinehint nounwind uwtable
define internal void @Gia_ManGenSorterOne(ptr noundef %0, ptr noundef %1, i32 noundef %2, i32 noundef %3) #4 {
  %5 = alloca ptr, align 8
  %6 = alloca ptr, align 8
  %7 = alloca i32, align 4
  %8 = alloca i32, align 4
  %9 = alloca i32, align 4
  %10 = alloca i32, align 4
  store ptr %0, ptr %5, align 8, !tbaa !12
  store ptr %1, ptr %6, align 8, !tbaa !53
  store i32 %2, ptr %7, align 4, !tbaa !10
  store i32 %3, ptr %8, align 4, !tbaa !10
  call void @llvm.lifetime.start.p0(i64 4, ptr %9) #15
  %11 = load ptr, ptr %5, align 8, !tbaa !12
  %12 = load ptr, ptr %6, align 8, !tbaa !53
  %13 = load i32, ptr %7, align 4, !tbaa !10
  %14 = sext i32 %13 to i64
  %15 = getelementptr inbounds i32, ptr %12, i64 %14
  %16 = load i32, ptr %15, align 4, !tbaa !10
  %17 = load ptr, ptr %6, align 8, !tbaa !53
  %18 = load i32, ptr %8, align 4, !tbaa !10
  %19 = sext i32 %18 to i64
  %20 = getelementptr inbounds i32, ptr %17, i64 %19
  %21 = load i32, ptr %20, align 4, !tbaa !10
  %22 = call i32 @Gia_ManAppendAnd(ptr noundef %11, i32 noundef %16, i32 noundef %21)
  store i32 %22, ptr %9, align 4, !tbaa !10
  call void @llvm.lifetime.start.p0(i64 4, ptr %10) #15
  %23 = load ptr, ptr %5, align 8, !tbaa !12
  %24 = load ptr, ptr %6, align 8, !tbaa !53
  %25 = load i32, ptr %7, align 4, !tbaa !10
  %26 = sext i32 %25 to i64
  %27 = getelementptr inbounds i32, ptr %24, i64 %26
  %28 = load i32, ptr %27, align 4, !tbaa !10
  %29 = load ptr, ptr %6, align 8, !tbaa !53
  %30 = load i32, ptr %8, align 4, !tbaa !10
  %31 = sext i32 %30 to i64
  %32 = getelementptr inbounds i32, ptr %29, i64 %31
  %33 = load i32, ptr %32, align 4, !tbaa !10
  %34 = call i32 @Gia_ManAppendOr(ptr noundef %23, i32 noundef %28, i32 noundef %33)
  store i32 %34, ptr %10, align 4, !tbaa !10
  %35 = load i32, ptr %9, align 4, !tbaa !10
  %36 = load ptr, ptr %6, align 8, !tbaa !53
  %37 = load i32, ptr %7, align 4, !tbaa !10
  %38 = sext i32 %37 to i64
  %39 = getelementptr inbounds i32, ptr %36, i64 %38
  store i32 %35, ptr %39, align 4, !tbaa !10
  %40 = load i32, ptr %10, align 4, !tbaa !10
  %41 = load ptr, ptr %6, align 8, !tbaa !53
  %42 = load i32, ptr %8, align 4, !tbaa !10
  %43 = sext i32 %42 to i64
  %44 = getelementptr inbounds i32, ptr %41, i64 %43
  store i32 %40, ptr %44, align 4, !tbaa !10
  call void @llvm.lifetime.end.p0(i64 4, ptr %10) #15
  call void @llvm.lifetime.end.p0(i64 4, ptr %9) #15
  ret void
}

; Function Attrs: inlinehint nounwind uwtable
define internal void @Gia_ManGenSorterConstrMerge(ptr noundef %0, ptr noundef %1, i32 noundef %2, i32 noundef %3, i32 noundef %4) #4 {
  %6 = alloca ptr, align 8
  %7 = alloca ptr, align 8
  %8 = alloca i32, align 4
  %9 = alloca i32, align 4
  %10 = alloca i32, align 4
  %11 = alloca i32, align 4
  %12 = alloca i32, align 4
  store ptr %0, ptr %6, align 8, !tbaa !12
  store ptr %1, ptr %7, align 8, !tbaa !53
  store i32 %2, ptr %8, align 4, !tbaa !10
  store i32 %3, ptr %9, align 4, !tbaa !10
  store i32 %4, ptr %10, align 4, !tbaa !10
  call void @llvm.lifetime.start.p0(i64 4, ptr %11) #15
  call void @llvm.lifetime.start.p0(i64 4, ptr %12) #15
  %13 = load i32, ptr %10, align 4, !tbaa !10
  %14 = mul nsw i32 %13, 2
  store i32 %14, ptr %12, align 4, !tbaa !10
  %15 = load i32, ptr %12, align 4, !tbaa !10
  %16 = load i32, ptr %9, align 4, !tbaa !10
  %17 = load i32, ptr %8, align 4, !tbaa !10
  %18 = sub nsw i32 %16, %17
  %19 = icmp slt i32 %15, %18
  br i1 %19, label %20, label %56

20:                                               ; preds = %5
  %21 = load ptr, ptr %6, align 8, !tbaa !12
  %22 = load ptr, ptr %7, align 8, !tbaa !53
  %23 = load i32, ptr %8, align 4, !tbaa !10
  %24 = load i32, ptr %9, align 4, !tbaa !10
  %25 = load i32, ptr %10, align 4, !tbaa !10
  %26 = sub nsw i32 %24, %25
  %27 = load i32, ptr %12, align 4, !tbaa !10
  call void @Gia_ManGenSorterConstrMerge(ptr noundef %21, ptr noundef %22, i32 noundef %23, i32 noundef %26, i32 noundef %27)
  %28 = load ptr, ptr %6, align 8, !tbaa !12
  %29 = load ptr, ptr %7, align 8, !tbaa !53
  %30 = load i32, ptr %8, align 4, !tbaa !10
  %31 = load i32, ptr %10, align 4, !tbaa !10
  %32 = add nsw i32 %30, %31
  %33 = load i32, ptr %9, align 4, !tbaa !10
  %34 = load i32, ptr %12, align 4, !tbaa !10
  call void @Gia_ManGenSorterConstrMerge(ptr noundef %28, ptr noundef %29, i32 noundef %32, i32 noundef %33, i32 noundef %34)
  %35 = load i32, ptr %8, align 4, !tbaa !10
  %36 = load i32, ptr %10, align 4, !tbaa !10
  %37 = add nsw i32 %35, %36
  store i32 %37, ptr %11, align 4, !tbaa !10
  br label %38

38:                                               ; preds = %51, %20
  %39 = load i32, ptr %11, align 4, !tbaa !10
  %40 = load i32, ptr %9, align 4, !tbaa !10
  %41 = load i32, ptr %10, align 4, !tbaa !10
  %42 = sub nsw i32 %40, %41
  %43 = icmp slt i32 %39, %42
  br i1 %43, label %44, label %55

44:                                               ; preds = %38
  %45 = load ptr, ptr %6, align 8, !tbaa !12
  %46 = load ptr, ptr %7, align 8, !tbaa !53
  %47 = load i32, ptr %11, align 4, !tbaa !10
  %48 = load i32, ptr %11, align 4, !tbaa !10
  %49 = load i32, ptr %10, align 4, !tbaa !10
  %50 = add nsw i32 %48, %49
  call void @Gia_ManGenSorterOne(ptr noundef %45, ptr noundef %46, i32 noundef %47, i32 noundef %50)
  br label %51

51:                                               ; preds = %44
  %52 = load i32, ptr %12, align 4, !tbaa !10
  %53 = load i32, ptr %11, align 4, !tbaa !10
  %54 = add nsw i32 %53, %52
  store i32 %54, ptr %11, align 4, !tbaa !10
  br label %38, !llvm.loop !178

55:                                               ; preds = %38
  br label %56

56:                                               ; preds = %55, %5
  call void @llvm.lifetime.end.p0(i64 4, ptr %12) #15
  call void @llvm.lifetime.end.p0(i64 4, ptr %11) #15
  ret void
}