; Function Attrs: inlinehint nounwind uwtable
define internal fastcc void @Gia_ManGenSorterConstrMerge(ptr noundef %0, ptr noundef %1, i32 noundef %2, i32 noundef %3, i32 noundef %4) unnamed_addr #4 {
  %6 = shl nsw i32 %4, 1
  %7 = sub nsw i32 %3, %2
  %8 = icmp slt i32 %6, %7
  br i1 %8, label %9, label %.loopexit

9:                                                ; preds = %5
  %10 = sub nsw i32 %3, %4
  tail call fastcc void @Gia_ManGenSorterConstrMerge(ptr noundef %0, ptr noundef %1, i32 noundef %2, i32 noundef %10, i32 noundef %6)
  %11 = add nsw i32 %4, %2
  tail call fastcc void @Gia_ManGenSorterConstrMerge(ptr noundef %0, ptr noundef %1, i32 noundef %11, i32 noundef %3, i32 noundef %6)
  %12 = icmp slt i32 %11, %10
  br i1 %12, label %.lr.ph.preheader, label %.loopexit

.lr.ph.preheader:                                 ; preds = %9
  %13 = sext i32 %11 to i64
  %14 = sext i32 %6 to i64
  %15 = sext i32 %4 to i64
  %16 = sext i32 %10 to i64
  %invariant.gep = getelementptr i32, ptr %1, i64 %15
  br label %.lr.ph

.lr.ph:                                           ; preds = %.lr.ph.preheader, %.lr.ph
  %indvars.iv = phi i64 [ %13, %.lr.ph.preheader ], [ %indvars.iv.next, %.lr.ph ]
  %17 = getelementptr inbounds i32, ptr %1, i64 %indvars.iv
  %18 = load i32, ptr %17, align 4, !tbaa !19
  %gep = getelementptr i32, ptr %invariant.gep, i64 %indvars.iv
  %19 = load i32, ptr %gep, align 4, !tbaa !19
  %20 = tail call fastcc i32 @Gia_ManAppendAnd(ptr noundef %0, i32 noundef %18, i32 noundef %19)
  %21 = load i32, ptr %17, align 4, !tbaa !19
  %22 = load i32, ptr %gep, align 4, !tbaa !19
  %23 = xor i32 %21, 1
  %24 = xor i32 %22, 1
  %25 = tail call fastcc i32 @Gia_ManAppendAnd(ptr noundef %0, i32 noundef %23, i32 noundef %24)
  %26 = xor i32 %25, 1
  store i32 %20, ptr %17, align 4, !tbaa !19
  store i32 %26, ptr %gep, align 4, !tbaa !19
  %indvars.iv.next = add nsw i64 %indvars.iv, %14
  %27 = icmp slt i64 %indvars.iv.next, %16
  br i1 %27, label %.lr.ph, label %.loopexit, !llvm.loop !165

.loopexit:                                        ; preds = %.lr.ph, %9, %5
  ret void
}